target datalayout = "e-m:e-p270:32:32-p271:32:32-p272:64:64-i64:64-i128:128-f80:128-n8:16:32:64-S128"
target triple = "x86_64-pc-linux-gnu"

%struct._packet_info = type { ptr, ptr, i32, i32, %struct.nstime_t, %struct.nstime_t, %struct.nstime_t, i8, ptr, ptr, ptr, ptr, %struct._address, %struct._address, %struct._address, %struct._address, %struct._address, %struct._address, i32, ptr, i8, [3 x i8], %struct.anon, i32, i32, i32, i32, ptr, i8, ptr, ptr, i16, i16, i32, i32, i16, i32, i32, ptr, ptr, ptr, i8, i8, i16, i16, i16, i32, i16, i16, ptr, ptr, ptr, ptr, ptr, i32, i32 }
%struct.nstime_t = type { i64, i32 }
%struct._address = type { i32, i32, ptr, ptr }
%struct.anon = type { i8, [3 x i8] }

@.str.61 = private unnamed_addr constant [8 x i8] c"%s (%u)\00", align 1
@.str.108 = private unnamed_addr constant [9 x i8] c"Reserved\00", align 1
@hf_gsm_a_sm_enh_nsapi = internal global i32 0, align 4
@.str.1088 = private unnamed_addr constant [74 x i8] c"NSAPI %u for Multimedia Broadcast/Multicast Service (MBMS) Multicast mode\00", align 1
@.str.1089 = private unnamed_addr constant [100 x i8] c"Reserved for use by lower layers in the p2p radio bearer allocation message for MBMS Broadcast mode\00", align 1

; Function Attrs: null_pointer_is_valid sspstrong uwtable
define internal zeroext i16 @de_sm_enh_nsapi(ptr noundef %0, ptr noundef %1, ptr noundef %2, i32 noundef %3, i32 noundef %4, ptr noundef %5, i32 noundef %6) #1 {
  %8 = alloca ptr, align 8
  %9 = alloca ptr, align 8
  %10 = alloca ptr, align 8
  %11 = alloca i32, align 4
  %12 = alloca i32, align 4
  %13 = alloca ptr, align 8
  %14 = alloca i32, align 4
  %15 = alloca i8, align 1
  %16 = alloca ptr, align 8
  store ptr %0, ptr %8, align 8
  store ptr %1, ptr %9, align 8
  store ptr %2, ptr %10, align 8
  store i32 %3, ptr %11, align 4
  store i32 %4, ptr %12, align 4
  store ptr %5, ptr %13, align 8
  store i32 %6, ptr %14, align 4
  call void @llvm.lifetime.start.p0(i64 1, ptr %15) #6
  call void @llvm.lifetime.start.p0(i64 8, ptr %16) #6
  %17 = load ptr, ptr %8, align 8
  %18 = load i32, ptr %11, align 4
  %19 = call zeroext i8 @tvb_get_uint8(ptr noundef %17, i32 noundef %18)
  store i8 %19, ptr %15, align 1
  %20 = load i8, ptr %15, align 1
  %21 = zext i8 %20 to i32
  %22 = icmp slt i32 %21, 128
  br i1 %22, label %23, label %24

23:                                               ; preds = %7
  store ptr @.str.108, ptr %16, align 8
  br label %37

24:                                               ; preds = %7
  %25 = load i8, ptr %15, align 1
  %26 = zext i8 %25 to i32
  %27 = icmp slt i32 %26, 255
  br i1 %27, label %28, label %35

28:                                               ; preds = %24
  %29 = load ptr, ptr %10, align 8
  %30 = getelementptr inbounds nuw %struct._packet_info, ptr %29, i32 0, i32 51
  %31 = load ptr, ptr %30, align 8
  %32 = load i8, ptr %15, align 1
  %33 = zext i8 %32 to i32
  %34 = call noalias ptr (ptr, ptr, ...) @wmem_strdup_printf(ptr noundef %31, ptr noundef @.str.1088, i32 noundef %33)
  store ptr %34, ptr %16, align 8
  br label %36

35:                                               ; preds = %24
  store ptr @.str.1089, ptr %16, align 8
  br label %36

36:                                               ; preds = %35, %28
  br label %37

37:                                               ; preds = %36, %23
  %38 = load ptr, ptr %9, align 8
  %39 = load i32, ptr @hf_gsm_a_sm_enh_nsapi, align 4
  %40 = load ptr, ptr %8, align 8
  %41 = load i32, ptr %11, align 4
  %42 = load i8, ptr %15, align 1
  %43 = zext i8 %42 to i32
  %44 = load ptr, ptr %16, align 8
  %45 = load i8, ptr %15, align 1
  %46 = zext i8 %45 to i32
  %47 = call ptr (ptr, i32, ptr, i32, i32, i32, ptr, ...) @proto_tree_add_uint_format_value(ptr noundef %38, i32 noundef %39, ptr noundef %40, i32 noundef %41, i32 noundef 1, i32 noundef %43, ptr noundef @.str.61, ptr noundef %44, i32 noundef %46)
  call void @llvm.lifetime.end.p0(i64 8, ptr %16) #6
  call void @llvm.lifetime.end.p0(i64 1, ptr %15) #6
  ret i16 1
}