; Function Attrs: null_pointer_is_valid sspstrong uwtable
define internal noundef zeroext i16 @de_sm_enh_nsapi(ptr noundef %0, ptr noundef %1, ptr noundef readonly captures(none) %2, i32 noundef %3, i32 %4, ptr readnone captures(none) %5, i32 %6) #1 {
  %8 = tail call zeroext i8 @tvb_get_uint8(ptr noundef %0, i32 noundef %3)
  %9 = zext i8 %8 to i32
  %10 = icmp sgt i8 %8, -1
  br i1 %10, label %16, label %11

11:                                               ; preds = %7
  %.not = icmp eq i8 %8, -1
  br i1 %.not, label %16, label %12

12:                                               ; preds = %11
  %13 = getelementptr inbounds nuw i8, ptr %2, i64 408
  %14 = load ptr, ptr %13, align 8
  %15 = tail call noalias ptr (ptr, ptr, ...) @wmem_strdup_printf(ptr noundef %14, ptr noundef nonnull @.str.1088, i32 noundef %9)
  br label %16

16:                                               ; preds = %11, %7, %12
  %.0 = phi ptr [ %15, %12 ], [ @.str.108, %7 ], [ @.str.1089, %11 ]
  %17 = load i32, ptr @hf_gsm_a_sm_enh_nsapi, align 4
  %18 = tail call ptr (ptr, i32, ptr, i32, i32, i32, ptr, ...) @proto_tree_add_uint_format_value(ptr noundef %1, i32 noundef %17, ptr noundef %0, i32 noundef %3, i32 noundef 1, i32 noundef %9, ptr noundef nonnull @.str.61, ptr noundef %.0, i32 noundef %9)
  ret i16 1
}